; Function Attrs: nounwind uwtable
define hidden void @Wayland_primary_selection_offer_destroy(ptr noundef %0) local_unnamed_addr #0 {
  %.not = icmp eq ptr %0, null
  br i1 %.not, label %18, label %2

2:                                                ; preds = %1
  %3 = load ptr, ptr %0, align 8
  %4 = load ptr, ptr @WAYLAND_wl_proxy_marshal_flags, align 8
  %5 = load ptr, ptr @WAYLAND_wl_proxy_get_version, align 8
  %6 = tail call i32 %5(ptr noundef %3) #12
  %7 = tail call ptr (ptr, i32, ptr, i32, i32, ...) %4(ptr noundef %3, i32 noundef 1, ptr noundef null, i32 noundef %6, i32 noundef 1) #12
  %8 = getelementptr inbounds nuw i8, ptr %0, i64 8
  %9 = getelementptr inbounds nuw i8, ptr %0, i64 16
  %10 = load ptr, ptr %9, align 8
  %.not21.i = icmp eq ptr %10, %8
  br i1 %.not21.i, label %mime_data_list_free.exit, label %.lr.ph.i

.lr.ph.i:                                         ; preds = %2, %17
  %.pn1622.i = phi ptr [ %.pn24.i, %17 ], [ %10, %2 ]
  %.01123.i = getelementptr inbounds i8, ptr %.pn1622.i, i64 -24
  %.pn24.in.i = getelementptr inbounds nuw i8, ptr %.pn1622.i, i64 8
  %.pn24.i = load ptr, ptr %.pn24.in.i, align 8
  %11 = getelementptr inbounds i8, ptr %.pn1622.i, i64 -16
  %12 = load ptr, ptr %11, align 8
  %.not14.i = icmp eq ptr %12, null
  br i1 %.not14.i, label %14, label %13

13:                                               ; preds = %.lr.ph.i
  tail call void @SDL_free_REAL(ptr noundef nonnull %12) #12
  br label %14

14:                                               ; preds = %13, %.lr.ph.i
  %15 = load ptr, ptr %.01123.i, align 8
  %.not15.i = icmp eq ptr %15, null
  br i1 %.not15.i, label %17, label %16

16:                                               ; preds = %14
  tail call void @SDL_free_REAL(ptr noundef nonnull %15) #12
  br label %17

17:                                               ; preds = %16, %14
  tail call void @SDL_free_REAL(ptr noundef nonnull %.01123.i) #12
  %.not.i = icmp eq ptr %.pn24.i, %8
  br i1 %.not.i, label %mime_data_list_free.exit, label %.lr.ph.i, !llvm.loop !10

mime_data_list_free.exit:                         ; preds = %17, %2
  tail call void @SDL_free_REAL(ptr noundef nonnull %0) #12
  br label %18

18:                                               ; preds = %mime_data_list_free.exit, %1
  ret void
}